(dp1
S'traffic_stream'
p2
ccopy_reg
_reconstructor
p3
(ctwisted.plugin
CachedDropin
p4
c__builtin__
object
p5
NtRp6
(dp7
S'moduleName'
p8
S'modules.traffic_stream'
p9
sS'description'
p10
NsS'plugins'
p11
(lp12
g3
(ctwisted.plugin
CachedPlugin
p13
g5
NtRp14
(dp15
S'provided'
p16
(lp17
ctwisted.plugin
IPlugin
p18
acmodule
IModule
p19
asS'dropin'
p20
g6
sS'name'
p21
S'traffic_stream'
p22
sg10
S'\n    Extension of AbstractModule class used to serialize items to Redis.\n    '
p23
sbasbsS'latency'
p24
g3
(g4
g5
NtRp25
(dp26
g8
S'modules.latency'
p27
sg10
Nsg11
(lp28
g3
(g13
g5
NtRp29
(dp30
g16
(lp31
g18
ag19
asg20
g25
sg21
S'latency'
p32
sg10
NsbasbsS'test_proxy_api'
p33
g3
(g4
g5
NtRp34
(dp35
g8
S'modules.test_proxy_api'
p36
sg10
Nsg11
(lp37
g3
(g13
g5
NtRp38
(dp39
g16
(lp40
g18
ag19
actwisted.trial.itrial
ITestCase
p41
asg20
g34
sg21
S'test_stop_recording'
p42
sg10
S"\n    Used to teset the proxy controller API call 'stop_recording'.\n    "
p43
sbag3
(g13
g5
NtRp44
(dp45
g16
(lp46
g18
ag19
ag41
asg20
g34
sg21
S'test_start_recording'
p47
sg10
S"\n    Used to teset the proxy controller API call 'start_recording'.\n    "
p48
sbasbsS'traffic_reader'
p49
g3
(g4
g5
NtRp50
(dp51
g8
S'modules.traffic_reader'
p52
sg10
Nsg11
(lp53
g3
(g13
g5
NtRp54
(dp55
g16
(lp56
g18
ag19
asg20
g50
sg21
S'traffic_reader'
p57
sg10
S'\n    Extension of AbstractModule class used to serialize traffic\n    to a Redis pubsub channel.\n    '
p58
sbasbsS'unittest_module'
p59
g3
(g4
g5
NtRp60
(dp61
g8
S'modules.unittest_module'
p62
sg10
Nsg11
(lp63
g3
(g13
g5
NtRp64
(dp65
g16
(lp66
g18
ag19
asg20
g60
sg21
S'unit_test_module'
p67
sg10
S'\n    This module injects specific header/body attributes that proxy_core\n    unittests looks for.\n    '
p68
sbasbsS'traffic_recorder'
p69
g3
(g4
g5
NtRp70
(dp71
g8
S'modules.traffic_recorder'
p72
sg10
Nsg11
(lp73
g3
(g13
g5
NtRp74
(dp75
g16
(lp76
g18
ag19
asg20
g70
sg21
S'traffic_recorder'
p77
sg10
NsbasbsS'samplemodule'
p78
g3
(g4
g5
NtRp79
(dp80
g8
S'modules.samplemodule'
p81
sg10
Nsg11
(lp82
g3
(g13
g5
NtRp83
(dp84
g16
(lp85
g18
ag19
asg20
g79
sg21
S'sample_module'
p86
sg10
NsbasbsS'fault_intection'
p87
g3
(g4
g5
NtRp88
(dp89
g8
S'modules.fault_intection'
p90
sg10
Nsg11
(lp91
g3
(g13
g5
NtRp92
(dp93
g16
(lp94
g18
ag19
asg20
g88
sg21
S'fault_injection'
p95
sg10
Nsbasbs.