(dp1
S'traffic_stream'
p2
ccopy_reg
_reconstructor
p3
(ctwisted.plugin
CachedDropin
p4
c__builtin__
object
p5
NtRp6
(dp7
S'moduleName'
p8
S'modules.traffic_stream'
p9
sS'description'
p10
NsS'plugins'
p11
(lp12
g3
(ctwisted.plugin
CachedPlugin
p13
g5
NtRp14
(dp15
S'provided'
p16
(lp17
ctwisted.plugin
IPlugin
p18
acmodule
IModule
p19
asS'dropin'
p20
g6
sS'name'
p21
S'traffic_stream'
p22
sg10
S'\n    Extension of AbstractModule class used to serialize items to Redis.\n    '
p23
sbasbsS'latency'
p24
g3
(g4
g5
NtRp25
(dp26
g8
S'modules.latency'
p27
sg10
Nsg11
(lp28
g3
(g13
g5
NtRp29
(dp30
g16
(lp31
g18
ag19
asg20
g25
sg21
S'latency'
p32
sg10
NsbasbsS'traffic_reader'
p33
g3
(g4
g5
NtRp34
(dp35
g8
S'modules.traffic_reader'
p36
sg10
Nsg11
(lp37
g3
(g13
g5
NtRp38
(dp39
g16
(lp40
g18
ag19
asg20
g34
sg21
S'traffic_reader'
p41
sg10
S'\n    Extension of AbstractModule class used to serialize items to Redis.\n    '
p42
sbasbsS'unittest_module'
p43
g3
(g4
g5
NtRp44
(dp45
g8
S'modules.unittest_module'
p46
sg10
Nsg11
(lp47
g3
(g13
g5
NtRp48
(dp49
g16
(lp50
g18
ag19
asg20
g44
sg21
S'unit_test_module'
p51
sg10
S'\n    This module injects specific header/body attributes that proxy_core\n    unittests looks for.\n    '
p52
sbasbsS'traffic_recorder'
p53
g3
(g4
g5
NtRp54
(dp55
g8
S'modules.traffic_recorder'
p56
sg10
Nsg11
(lp57
g3
(g13
g5
NtRp58
(dp59
g16
(lp60
g18
ag19
asg20
g54
sg21
S'traffic_recorder'
p61
sg10
NsbasbsS'samplemodule'
p62
g3
(g4
g5
NtRp63
(dp64
g8
S'modules.samplemodule'
p65
sg10
Nsg11
(lp66
g3
(g13
g5
NtRp67
(dp68
g16
(lp69
g18
ag19
asg20
g63
sg21
S'sample_module'
p70
sg10
NsbasbsS'fault_intection'
p71
g3
(g4
g5
NtRp72
(dp73
g8
S'modules.fault_intection'
p74
sg10
Nsg11
(lp75
g3
(g13
g5
NtRp76
(dp77
g16
(lp78
g18
ag19
asg20
g72
sg21
S'fault_injection'
p79
sg10
Nsbasbs.