(dp1
S'traffic_stream'
p2
ccopy_reg
_reconstructor
p3
(ctwisted.plugin
CachedDropin
p4
c__builtin__
object
p5
NtRp6
(dp7
S'moduleName'
p8
S'modules.traffic_stream'
p9
sS'description'
p10
NsS'plugins'
p11
(lp12
g3
(ctwisted.plugin
CachedPlugin
p13
g5
NtRp14
(dp15
S'provided'
p16
(lp17
ctwisted.plugin
IPlugin
p18
acmodule
IModule
p19
asS'dropin'
p20
g6
sS'name'
p21
S'traffic_stream'
p22
sg10
S'\n    Extension of AbstractModule class used to serialize items to Redis.\n    '
p23
sbasbsS'latency'
p24
g3
(g4
g5
NtRp25
(dp26
g8
S'modules.latency'
p27
sg10
Nsg11
(lp28
g3
(g13
g5
NtRp29
(dp30
g16
(lp31
g18
ag19
asg20
g25
sg21
S'latency'
p32
sg10
NsbasbsS'test_proxy_api'
p33
g3
(g4
g5
NtRp34
(dp35
g8
S'modules.test_proxy_api'
p36
sg10
Nsg11
(lp37
g3
(g13
g5
NtRp38
(dp39
g16
(lp40
g18
ag19
actwisted.trial.itrial
ITestCase
p41
asg20
g34
sg21
S'test_start_recording'
p42
sg10
S"\n    Used to teset the proxy controller API call 'start_recording'.\n    "
p43
sbag3
(g13
g5
NtRp44
(dp45
g16
(lp46
g18
ag19
ag41
asg20
g34
sg21
S'test_start_proxy'
p47
sg10
S"\n    Used to teset the proxy controller API call 'start'.\n    "
p48
sbag3
(g13
g5
NtRp49
(dp50
g16
(lp51
g18
ag19
ag41
asg20
g34
sg21
S'test_reload_proxy'
p52
sg10
S"\n    Used to teset the proxy controller API call\n    'reload'.\n    "
p53
sbag3
(g13
g5
NtRp54
(dp55
g16
(lp56
g18
ag19
ag41
asg20
g34
sg21
S'test_upstream_port_proxy'
p57
sg10
S"\n    Used to teset the proxy controller API call\n    'upstream_port'.\n    "
p58
sbag3
(g13
g5
NtRp59
(dp60
g16
(lp61
g18
ag19
ag41
asg20
g34
sg21
S'test_stop_proxy'
p62
sg10
S"\n    Used to teset the proxy controller API call 'stop'.\n    "
p63
sbag3
(g13
g5
NtRp64
(dp65
g16
(lp66
g18
ag19
ag41
asg20
g34
sg21
S'test_stop_recording'
p67
sg10
S"\n    Used to teset the proxy controller API call 'stop_recording'.\n    "
p68
sbag3
(g13
g5
NtRp69
(dp70
g16
(lp71
g18
ag19
ag41
asg20
g34
sg21
S'test_bind_address_proxy'
p72
sg10
S"\n    Used to teset the proxy controller API call\n    'bind_address'.\n    "
p73
sbag3
(g13
g5
NtRp74
(dp75
g16
(lp76
g18
ag19
ag41
asg20
g34
sg21
S'test_upstream_host_proxy'
p77
sg10
S"\n    Used to teset the proxy controller API call\n    'upstream_host'.\n    "
p78
sbag3
(g13
g5
NtRp79
(dp80
g16
(lp81
g18
ag19
ag41
asg20
g34
sg21
S'test_Reset_proxy'
p82
sg10
S"\n    Used to teset the proxy controller API call\n    'reset'.\n    "
p83
sbag3
(g13
g5
NtRp84
(dp85
g16
(lp86
g18
ag19
ag41
asg20
g34
sg21
S'test_bind_port_proxy'
p87
sg10
S"\n    Used to teset the proxy controller API call\n    'bind_port'.\n    "
p88
sbasbsS'traffic_reader'
p89
g3
(g4
g5
NtRp90
(dp91
g8
S'modules.traffic_reader'
p92
sg10
Nsg11
(lp93
g3
(g13
g5
NtRp94
(dp95
g16
(lp96
g18
ag19
asg20
g90
sg21
S'traffic_reader'
p97
sg10
S'\n    Extension of AbstractModule class used to serialize traffic\n    to a Redis pubsub channel.\n    '
p98
sbasbsS'unittest_module'
p99
g3
(g4
g5
NtRp100
(dp101
g8
S'modules.unittest_module'
p102
sg10
Nsg11
(lp103
g3
(g13
g5
NtRp104
(dp105
g16
(lp106
g18
ag19
asg20
g100
sg21
S'unit_test_module'
p107
sg10
S'\n    This module injects specific header/body attributes that proxy_core\n    unittests looks for.\n    '
p108
sbasbsS'traffic_recorder'
p109
g3
(g4
g5
NtRp110
(dp111
g8
S'modules.traffic_recorder'
p112
sg10
Nsg11
(lp113
g3
(g13
g5
NtRp114
(dp115
g16
(lp116
g18
ag19
asg20
g110
sg21
S'traffic_recorder'
p117
sg10
NsbasbsS'samplemodule'
p118
g3
(g4
g5
NtRp119
(dp120
g8
S'modules.samplemodule'
p121
sg10
Nsg11
(lp122
g3
(g13
g5
NtRp123
(dp124
g16
(lp125
g18
ag19
asg20
g119
sg21
S'sample_module'
p126
sg10
NsbasbsS'fault_intection'
p127
g3
(g4
g5
NtRp128
(dp129
g8
S'modules.fault_intection'
p130
sg10
Nsg11
(lp131
g3
(g13
g5
NtRp132
(dp133
g16
(lp134
g18
ag19
asg20
g128
sg21
S'fault_injection'
p135
sg10
Nsbasbs.