(dp1
S'traffic_stream'
p2
ccopy_reg
_reconstructor
p3
(ctwisted.plugin
CachedDropin
p4
c__builtin__
object
p5
NtRp6
(dp7
S'moduleName'
p8
S'modules.traffic_stream'
p9
sS'description'
p10
NsS'plugins'
p11
(lp12
g3
(ctwisted.plugin
CachedPlugin
p13
g5
NtRp14
(dp15
S'provided'
p16
(lp17
ctwisted.plugin
IPlugin
p18
acmodule
IModule
p19
asS'dropin'
p20
g6
sS'name'
p21
S'traffic_stream'
p22
sg10
S'\n    Extension of AbstractModule class used to serialize items to Redis.\n    '
p23
sbasbsS'latency'
p24
g3
(g4
g5
NtRp25
(dp26
g8
S'modules.latency'
p27
sg10
Nsg11
(lp28
g3
(g13
g5
NtRp29
(dp30
g16
(lp31
g18
ag19
asg20
g25
sg21
S'latency'
p32
sg10
NsbasbsS'fault_injection'
p33
g3
(g4
g5
NtRp34
(dp35
g8
S'modules.fault_injection'
p36
sg10
Nsg11
(lp37
g3
(g13
g5
NtRp38
(dp39
g16
(lp40
g18
ag19
asg20
g34
sg21
S'fault_injection'
p41
sg10
NsbasbsS'test_proxy_api'
p42
g3
(g4
g5
NtRp43
(dp44
g8
S'modules.test_proxy_api'
p45
sg10
Nsg11
(lp46
g3
(g13
g5
NtRp47
(dp48
g16
(lp49
g18
ag19
actwisted.trial.itrial
ITestCase
p50
asg20
g43
sg21
<<<<<<< HEAD
S'test_status_proxy'
p51
sg10
S"\n    Used to teset the proxy controller API call 'status'.\n    "
=======
S'test_start_recording'
p51
sg10
S"\n    Used to teset the proxy controller API call 'start_recording'.\n    "
>>>>>>> echo_serv_response
p52
sbag3
(g13
g5
NtRp53
(dp54
g16
(lp55
g18
ag19
ag50
asg20
g43
sg21
<<<<<<< HEAD
S'test_start_recording'
p56
sg10
S"\n    Used to teset the proxy controller API call 'start_recording'.\n    "
=======
S'test_start_proxy'
p56
sg10
S"\n    Used to teset the proxy controller API call 'start'.\n    "
>>>>>>> echo_serv_response
p57
sbag3
(g13
g5
NtRp58
(dp59
g16
(lp60
g18
ag19
ag50
asg20
g43
sg21
<<<<<<< HEAD
S'test_busy_recording'
p61
sg10
S"\n    Used to teset the proxy controller API call 'start_recording',\n    for a busy response.\n    "
=======
S'test_reload_proxy'
p61
sg10
S"\n    Used to teset the proxy controller API call\n    'reload'.\n    "
>>>>>>> echo_serv_response
p62
sbag3
(g13
g5
NtRp63
(dp64
g16
(lp65
g18
ag19
ag50
asg20
g43
sg21
<<<<<<< HEAD
S'test_start_proxy'
p66
sg10
S"\n    Used to teset the proxy controller API call 'start'.\n    "
=======
S'test_upstream_port_proxy'
p66
sg10
S"\n    Used to teset the proxy controller API call\n    'upstream_port'.\n    "
>>>>>>> echo_serv_response
p67
sbag3
(g13
g5
NtRp68
(dp69
g16
(lp70
g18
ag19
ag50
asg20
g43
sg21
<<<<<<< HEAD
S'test_reload_proxy'
p71
sg10
S"\n    Used to teset the proxy controller API call\n    'reload'.\n    "
=======
S'test_stop_proxy'
p71
sg10
S"\n    Used to teset the proxy controller API call 'stop'.\n    "
>>>>>>> echo_serv_response
p72
sbag3
(g13
g5
NtRp73
(dp74
g16
(lp75
g18
ag19
ag50
asg20
g43
sg21
<<<<<<< HEAD
S'test_upstream_port_proxy'
p76
sg10
S"\n    Used to teset the proxy controller API call\n    'upstream_port'.\n    "
=======
S'test_stop_recording'
p76
sg10
S"\n    Used to teset the proxy controller API call 'stop_recording'.\n    "
>>>>>>> echo_serv_response
p77
sbag3
(g13
g5
NtRp78
(dp79
g16
(lp80
g18
ag19
ag50
asg20
g43
sg21
<<<<<<< HEAD
S'test_stop_proxy'
p81
sg10
S"\n    Used to teset the proxy controller API call 'stop'.\n    "
=======
S'test_bind_address_proxy'
p81
sg10
S"\n    Used to teset the proxy controller API call\n    'bind_address'.\n    "
>>>>>>> echo_serv_response
p82
sbag3
(g13
g5
NtRp83
(dp84
g16
(lp85
g18
ag19
ag50
asg20
g43
sg21
<<<<<<< HEAD
S'test_stop_recording'
p86
sg10
S"\n    Used to teset the proxy controller API call 'stop_recording'.\n    "
=======
S'test_upstream_host_proxy'
p86
sg10
S"\n    Used to teset the proxy controller API call\n    'upstream_host'.\n    "
>>>>>>> echo_serv_response
p87
sbag3
(g13
g5
NtRp88
(dp89
g16
(lp90
g18
ag19
ag50
asg20
g43
sg21
<<<<<<< HEAD
S'test_bind_address_proxy'
p91
sg10
S"\n    Used to teset the proxy controller API call\n    'bind_address'.\n    "
=======
S'test_Reset_proxy'
p91
sg10
S"\n    Used to teset the proxy controller API call\n    'reset'.\n    "
>>>>>>> echo_serv_response
p92
sbag3
(g13
g5
NtRp93
(dp94
g16
(lp95
g18
ag19
ag50
asg20
g43
sg21
<<<<<<< HEAD
S'test_upstream_host_proxy'
p96
sg10
S"\n    Used to teset the proxy controller API call\n    'upstream_host'.\n    "
p97
sbag3
(g13
g5
NtRp98
(dp99
g16
(lp100
g18
ag19
ag50
asg20
g43
sg21
S'test_Reset_proxy'
p101
sg10
S"\n    Used to teset the proxy controller API call\n    'reset'.\n    "
p102
sbag3
=======
S'test_bind_port_proxy'
p96
sg10
S"\n    Used to teset the proxy controller API call\n    'bind_port'.\n    "
p97
sbasbsS'traffic_reader'
p98
g3
(g4
g5
NtRp99
(dp100
g8
S'modules.traffic_reader'
p101
sg10
Nsg11
(lp102
g3
>>>>>>> echo_serv_response
(g13
g5
NtRp103
(dp104
g16
(lp105
g18
ag19
<<<<<<< HEAD
ag50
asg20
g43
sg21
S'test_bind_port_proxy'
p106
sg10
S"\n    Used to teset the proxy controller API call\n    'bind_port'.\n    "
p107
sbasbsS'traffic_reader'
=======
asg20
g99
sg21
S'traffic_reader'
p106
sg10
S'\n    Extension of AbstractModule class used to serialize traffic\n    to a Redis pubsub channel.\n    '
p107
sbasbsS'unittest_module'
>>>>>>> echo_serv_response
p108
g3
(g4
g5
NtRp109
(dp110
g8
<<<<<<< HEAD
S'modules.traffic_reader'
=======
S'modules.unittest_module'
>>>>>>> echo_serv_response
p111
sg10
Nsg11
(lp112
g3
(g13
g5
NtRp113
(dp114
g16
(lp115
g18
ag19
asg20
g109
sg21
<<<<<<< HEAD
S'traffic_reader'
p116
sg10
S'\n    Extension of AbstractModule class used to serialize traffic\n    to a Redis pubsub channel.\n    '
p117
sbasbsS'unittest_module'
=======
S'unit_test_module'
p116
sg10
S'\n    This module injects specific header/body attributes that proxy_core\n    unittests looks for.\n    '
p117
sbasbsS'traffic_recorder'
>>>>>>> echo_serv_response
p118
g3
(g4
g5
NtRp119
(dp120
g8
<<<<<<< HEAD
S'modules.unittest_module'
=======
S'modules.traffic_recorder'
>>>>>>> echo_serv_response
p121
sg10
Nsg11
(lp122
g3
(g13
g5
NtRp123
(dp124
g16
(lp125
g18
ag19
asg20
g119
sg21
<<<<<<< HEAD
S'unit_test_module'
p126
sg10
S'\n    This module injects specific header/body attributes that proxy_core\n    unittests looks for.\n    '
p127
sbasbsS'traffic_recorder'
p128
g3
(g4
g5
NtRp129
(dp130
g8
S'modules.traffic_recorder'
p131
sg10
Nsg11
(lp132
g3
(g13
g5
NtRp133
(dp134
g16
(lp135
g18
ag19
asg20
g129
sg21
S'traffic_recorder'
p136
sg10
NsbasbsS'test_modules'
=======
S'traffic_recorder'
p126
sg10
NsbasbsS'test_modules'
p127
g3
(g4
g5
NtRp128
(dp129
g8
S'modules.test_modules'
p130
sg10
Nsg11
(lp131
g3
(g13
g5
NtRp132
(dp133
g16
(lp134
g18
ag19
asg20
g128
sg21
S'test_modify_status'
p135
sg10
S'\n    This module changes the status code of the response\n    '
p136
sbasbsS'fault_intection'
>>>>>>> echo_serv_response
p137
g3
(g4
g5
NtRp138
(dp139
g8
<<<<<<< HEAD
S'modules.test_modules'
=======
S'modules.fault_intection'
>>>>>>> echo_serv_response
p140
sg10
Nsg11
(lp141
g3
(g13
g5
NtRp142
(dp143
g16
(lp144
g18
ag19
asg20
g138
sg21
<<<<<<< HEAD
S'fault_injection'
p145
=======
<<<<<<< HEAD
S'test_modify_status'
p145
sg10
S'\n    This module changes the status code of the response\n    '
p146
sbasbsS'fault_intection'
p147
g3
(g4
g5
NtRp148
(dp149
g8
S'modules.fault_intection'
p150
sg10
Nsg11
(lp151
g3
(g13
g5
NtRp152
(dp153
g16
(lp154
g18
ag19
asg20
g148
sg21
g41
sg10
NsbasbsS'samplemodule'
p155
g3
(g4
g5
NtRp156
(dp157
g8
S'modules.samplemodule'
p158
sg10
Nsg11
(lp159
g3
(g13
g5
NtRp160
(dp161
g16
(lp162
g18
ag19
asg20
g156
sg21
S'sample_module'
p163
=======
g41
>>>>>>> master
sg10
NsbasbsS'samplemodule'
p146
g3
(g4
g5
NtRp147
(dp148
g8
S'modules.samplemodule'
p149
sg10
Nsg11
(lp150
g3
(g13
g5
NtRp151
(dp152
g16
(lp153
g18
ag19
asg20
g147
sg21
S'sample_module'
<<<<<<< HEAD
p154
=======
p153
>>>>>>> echo_serv_response
>>>>>>> master
sg10
Nsbasbs.