(dp1
S'traffic_stream'
p2
ccopy_reg
_reconstructor
p3
(ctwisted.plugin
CachedDropin
p4
c__builtin__
object
p5
NtRp6
(dp7
S'moduleName'
p8
S'modules.traffic_stream'
p9
sS'description'
p10
NsS'plugins'
p11
(lp12
g3
(ctwisted.plugin
CachedPlugin
p13
g5
NtRp14
(dp15
S'provided'
p16
(lp17
ctwisted.plugin
IPlugin
p18
acmodule
IModule
p19
asS'dropin'
p20
g6
sS'name'
p21
S'traffic_stream'
p22
sg10
S'\n    Extension of AbstractModule class used to serialize items to Redis.\n    '
p23
sbasbsS'latency'
p24
g3
(g4
g5
NtRp25
(dp26
g8
S'modules.latency'
p27
sg10
Nsg11
(lp28
g3
(g13
g5
NtRp29
(dp30
g16
(lp31
g18
ag19
asg20
g25
sg21
S'latency'
p32
sg10
NsbasbsS'test_proxy_api'
p33
g3
(g4
g5
NtRp34
(dp35
g8
S'modules.test_proxy_api'
p36
sg10
Nsg11
(lp37
g3
(g13
g5
NtRp38
(dp39
g16
(lp40
g18
ag19
actwisted.trial.itrial
ITestCase
p41
asg20
g34
sg21
S'test_proxy_api'
p42
sg10
S'\n    Extension of AbstractModule class used to serialize traffic\n    to a Redis pubsub channel.\n    '
p43
sbasbsS'traffic_reader'
p44
g3
(g4
g5
NtRp45
(dp46
g8
S'modules.traffic_reader'
p47
sg10
Nsg11
(lp48
g3
(g13
g5
NtRp49
(dp50
g16
(lp51
g18
ag19
asg20
g45
sg21
S'traffic_reader'
p52
sg10
S'\n    Extension of AbstractModule class used to serialize traffic\n    to a Redis pubsub channel.\n    '
p53
sbasbsS'unittest_module'
p54
g3
(g4
g5
NtRp55
(dp56
g8
S'modules.unittest_module'
p57
sg10
Nsg11
(lp58
g3
(g13
g5
NtRp59
(dp60
g16
(lp61
g18
ag19
asg20
g55
sg21
S'unit_test_module'
p62
sg10
S'\n    This module injects specific header/body attributes that proxy_core\n    unittests looks for.\n    '
p63
sbasbsS'traffic_recorder'
p64
g3
(g4
g5
NtRp65
(dp66
g8
S'modules.traffic_recorder'
p67
sg10
Nsg11
(lp68
g3
(g13
g5
NtRp69
(dp70
g16
(lp71
g18
ag19
asg20
g65
sg21
S'traffic_recorder'
p72
sg10
NsbasbsS'samplemodule'
p73
g3
(g4
g5
NtRp74
(dp75
g8
S'modules.samplemodule'
p76
sg10
Nsg11
(lp77
g3
(g13
g5
NtRp78
(dp79
g16
(lp80
g18
ag19
asg20
g74
sg21
S'sample_module'
p81
sg10
NsbasbsS'fault_intection'
p82
g3
(g4
g5
NtRp83
(dp84
g8
S'modules.fault_intection'
p85
sg10
Nsg11
(lp86
g3
(g13
g5
NtRp87
(dp88
g16
(lp89
g18
ag19
asg20
g83
sg21
S'fault_injection'
p90
sg10
Nsbasbs.