(dp1
S'traffic_stream'
p2
ccopy_reg
_reconstructor
p3
(ctwisted.plugin
CachedDropin
p4
c__builtin__
object
p5
NtRp6
(dp7
S'moduleName'
p8
S'modules.traffic_stream'
p9
sS'description'
p10
NsS'plugins'
p11
(lp12
g3
(ctwisted.plugin
CachedPlugin
p13
g5
NtRp14
(dp15
S'provided'
p16
(lp17
ctwisted.plugin
IPlugin
p18
acmodule
IModule
p19
asS'dropin'
p20
g6
sS'name'
p21
S'traffic_stream'
p22
sg10
S'\n    Extension of AbstractModule class used to serialize items to Redis.\n    '
p23
sbasbsS'latency'
p24
g3
(g4
g5
NtRp25
(dp26
g8
S'modules.latency'
p27
sg10
Nsg11
(lp28
g3
(g13
g5
NtRp29
(dp30
g16
(lp31
g18
ag19
asg20
g25
sg21
S'latency'
p32
sg10
NsbasbsS'test_modules'
p33
g3
(g4
g5
NtRp34
(dp35
g8
S'modules.test_modules'
p36
sg10
Nsg11
(lp37
g3
(g13
g5
NtRp38
(dp39
g16
(lp40
g18
ag19
asg20
g34
sg21
S'test_modify_status'
p41
sg10
S'\n    This module changes the status code of the response\n    '
p42
sbasbsS'test_proxy_api'
p43
g3
(g4
g5
NtRp44
(dp45
g8
S'modules.test_proxy_api'
p46
sg10
Nsg11
(lp47
g3
(g13
g5
NtRp48
(dp49
g16
(lp50
g18
ag19
actwisted.trial.itrial
ITestCase
p51
asg20
g44
sg21
S'test_start_recording'
p52
sg10
S"\n    Used to teset the proxy controller API call 'start_recording'.\n    "
p53
sbag3
(g13
g5
NtRp54
(dp55
g16
(lp56
g18
ag19
ag51
asg20
g44
sg21
S'test_start_proxy'
p57
sg10
S"\n    Used to teset the proxy controller API call 'start'.\n    "
p58
sbag3
(g13
g5
NtRp59
(dp60
g16
(lp61
g18
ag19
ag51
asg20
g44
sg21
S'test_reload_proxy'
p62
sg10
S"\n    Used to teset the proxy controller API call\n    'reload'.\n    "
p63
sbag3
(g13
g5
NtRp64
(dp65
g16
(lp66
g18
ag19
ag51
asg20
g44
sg21
S'test_upstream_port_proxy'
p67
sg10
S"\n    Used to teset the proxy controller API call\n    'upstream_port'.\n    "
p68
sbag3
(g13
g5
NtRp69
(dp70
g16
(lp71
g18
ag19
ag51
asg20
g44
sg21
S'test_stop_proxy'
p72
sg10
S"\n    Used to teset the proxy controller API call 'stop'.\n    "
p73
sbag3
(g13
g5
NtRp74
(dp75
g16
(lp76
g18
ag19
ag51
asg20
g44
sg21
S'test_stop_recording'
p77
sg10
S"\n    Used to teset the proxy controller API call 'stop_recording'.\n    "
p78
sbag3
(g13
g5
NtRp79
(dp80
g16
(lp81
g18
ag19
ag51
asg20
g44
sg21
S'test_bind_address_proxy'
p82
sg10
S"\n    Used to teset the proxy controller API call\n    'bind_address'.\n    "
p83
sbag3
(g13
g5
NtRp84
(dp85
g16
(lp86
g18
ag19
ag51
asg20
g44
sg21
S'test_upstream_host_proxy'
p87
sg10
S"\n    Used to teset the proxy controller API call\n    'upstream_host'.\n    "
p88
sbag3
(g13
g5
NtRp89
(dp90
g16
(lp91
g18
ag19
ag51
asg20
g44
sg21
S'test_Reset_proxy'
p92
sg10
S"\n    Used to teset the proxy controller API call\n    'reset'.\n    "
p93
sbag3
(g13
g5
NtRp94
(dp95
g16
(lp96
g18
ag19
ag51
asg20
g44
sg21
S'test_bind_port_proxy'
p97
sg10
S"\n    Used to teset the proxy controller API call\n    'bind_port'.\n    "
p98
sbasbsS'traffic_reader'
p99
g3
(g4
g5
NtRp100
(dp101
g8
S'modules.traffic_reader'
p102
sg10
Nsg11
(lp103
g3
(g13
g5
NtRp104
(dp105
g16
(lp106
g18
ag19
asg20
g100
sg21
S'traffic_reader'
p107
sg10
S'\n    Extension of AbstractModule class used to serialize traffic\n    to a Redis pubsub channel.\n    '
p108
sbasbsS'unittest_module'
p109
g3
(g4
g5
NtRp110
(dp111
g8
S'modules.unittest_module'
p112
sg10
Nsg11
(lp113
g3
(g13
g5
NtRp114
(dp115
g16
(lp116
g18
ag19
asg20
g110
sg21
S'unit_test_module'
p117
sg10
S'\n    This module injects specific header/body attributes that proxy_core\n    unittests looks for.\n    '
p118
sbasbsS'traffic_recorder'
p119
g3
(g4
g5
NtRp120
(dp121
g8
S'modules.traffic_recorder'
p122
sg10
Nsg11
(lp123
g3
(g13
g5
NtRp124
(dp125
g16
(lp126
g18
ag19
asg20
g120
sg21
S'traffic_recorder'
p127
sg10
NsbasbsS'samplemodule'
p128
g3
(g4
g5
NtRp129
(dp130
g8
S'modules.samplemodule'
p131
sg10
Nsg11
(lp132
g3
(g13
g5
NtRp133
(dp134
g16
(lp135
g18
ag19
asg20
g129
sg21
S'sample_module'
p136
sg10
NsbasbsS'fault_intection'
p137
g3
(g4
g5
NtRp138
(dp139
g8
S'modules.fault_intection'
p140
sg10
Nsg11
(lp141
g3
(g13
g5
NtRp142
(dp143
g16
(lp144
g18
ag19
asg20
g138
sg21
S'fault_injection'
p145
sg10
Nsbasbs.