(dp1
S'latency'
p2
ccopy_reg
_reconstructor
p3
(ctwisted.plugin
CachedDropin
p4
c__builtin__
object
p5
NtRp6
(dp7
S'moduleName'
p8
S'modules.latency'
p9
sS'description'
p10
NsS'plugins'
p11
(lp12
g3
(ctwisted.plugin
CachedPlugin
p13
g5
NtRp14
(dp15
S'provided'
p16
(lp17
ctwisted.plugin
IPlugin
p18
acmodule
IModule
p19
asS'dropin'
p20
g6
sS'name'
p21
S'latency'
p22
sg10
NsbasbsS'unittest_module'
p23
g3
(g4
g5
NtRp24
(dp25
g8
S'modules.unittest_module'
p26
sg10
Nsg11
(lp27
g3
(g13
g5
NtRp28
(dp29
g16
(lp30
g18
ag19
asg20
g24
sg21
S'unit_test_module'
p31
sg10
S'\n    This module injects specific header/body attributes that proxy_core\n    unittests looks for.\n    '
p32
sbasbsS'fault_intection'
p33
g3
(g4
g5
NtRp34
(dp35
g8
S'modules.fault_intection'
p36
sg10
Nsg11
(lp37
g3
(g13
g5
NtRp38
(dp39
g16
(lp40
g18
ag19
asg20
g34
sg21
S'fault_injection'
p41
sg10
NsbasbsS'traffic_recorder'
p42
g3
(g4
g5
NtRp43
(dp44
g8
S'modules.traffic_recorder'
p45
sg10
Nsg11
(lp46
g3
(g13
g5
NtRp47
(dp48
g16
(lp49
g18
ag19
asg20
g43
sg21
S'traffic_recorder'
p50
sg10
S'\n    Extension of AbstractModule class used to serialize items to Redis.\n    '
p51
sbasbsS'samplemodule'
p52
g3
(g4
g5
NtRp53
(dp54
g8
S'modules.samplemodule'
p55
sg10
Nsg11
(lp56
g3
(g13
g5
NtRp57
(dp58
g16
(lp59
g18
ag19
asg20
g53
sg21
S'sample_module'
p60
sg10
Nsbasbs.