(dp1
S'unittest_module'
p2
ccopy_reg
_reconstructor
p3
(ctwisted.plugin
CachedDropin
p4
c__builtin__
object
p5
NtRp6
(dp7
S'moduleName'
p8
S'modules.unittest_module'
p9
sS'description'
p10
NsS'plugins'
p11
(lp12
g3
(ctwisted.plugin
CachedPlugin
p13
g5
NtRp14
(dp15
S'provided'
p16
(lp17
ctwisted.plugin
IPlugin
p18
acmodule
IModule
p19
asS'dropin'
p20
g6
sS'name'
p21
S'unit_test_module'
p22
sg10
S'\n    This module injects specific header/body attributes that proxy_core\n    unittests looks for.\n    '
p23
sbasbsS'serialize'
p24
g3
(g4
g5
NtRp25
(dp26
g8
S'modules.serialize'
p27
sg10
Nsg11
(lp28
g3
(g13
g5
NtRp29
(dp30
g16
(lp31
g18
ag19
asg20
g25
sg21
S'redis_dump'
p32
sg10
S'\n    Extension of AbstractModule class used to serialize items to Redis.\n    '
p33
sbasbsS'addLag'
p34
g3
(g4
g5
NtRp35
(dp36
g8
S'modules.addLag'
p37
sg10
Nsg11
(lp38
g3
(g13
g5
NtRp39
(dp40
g16
(lp41
g18
ag19
asg20
g35
sg21
S'add_lag'
p42
sg10
NsbasbsS'samplemodule'
p43
g3
(g4
g5
NtRp44
(dp45
g8
S'modules.samplemodule'
p46
sg10
Nsg11
(lp47
g3
(g13
g5
NtRp48
(dp49
g16
(lp50
g18
ag19
asg20
g44
sg21
S'sample_module'
p51
sg10
NsbasbsS'404s'
p52
g3
(g4
g5
NtRp53
(dp54
g8
S'modules.404s'
p55
sg10
Nsg11
(lp56
g3
(g13
g5
NtRp57
(dp58
g16
(lp59
g18
ag19
asg20
g53
sg21
S'all_fail'
p60
sg10
Nsbasbs.